target datalayout = "e-m:e-p270:32:32-p271:32:32-p272:64:64-i64:64-i128:128-f80:128-n8:16:32:64-S128"
target triple = "x86_64-pc-linux-gnu"

%struct.png_info_def = type { i32, i32, i32, i64, ptr, i16, i16, i8, i8, i8, i8, i8, i8, i8, i8, [8 x i8], %struct.png_colorspace, ptr, ptr, i32, i32, i32, ptr, %struct.png_time_struct, %struct.png_color_8_struct, ptr, %struct.png_color_16_struct, %struct.png_color_16_struct, i32, i32, i8, i32, i32, i8, ptr, ptr, i32, i32, ptr, ptr, i8, i8, i32, ptr, i32, ptr, i32, i8, ptr, ptr, ptr }
%struct.png_colorspace = type { i32, %struct.png_xy, %struct.png_XYZ, i16, i16 }
%struct.png_xy = type { i32, i32, i32, i32, i32, i32, i32, i32 }
%struct.png_XYZ = type { i32, i32, i32, i32, i32, i32, i32, i32, i32 }
%struct.png_time_struct = type { i16, i8, i8, i8, i8, i8 }
%struct.png_color_8_struct = type { i8, i8, i8, i8, i8 }
%struct.png_color_16_struct = type { i8, i16, i16, i16, i16 }
%struct.png_struct_def = type { [1 x %struct.__jmp_buf_tag], ptr, ptr, i64, ptr, ptr, ptr, ptr, ptr, ptr, ptr, ptr, i8, i8, i32, i32, i32, i32, %struct.z_stream_s, i32, i32, i32, i32, i64, i32, i32, i32, ptr, ptr, i64, i32, i32, ptr, i16, i32, i16, i8, i8, i8, i8, i8, i8, i8, i8, i8, i8, i8, i8, i8, i8, i16, i8, i32, %struct.png_color_16_struct, %struct.png_color_16_struct, i32, i32, ptr, ptr, ptr, ptr, ptr, ptr, %struct.png_color_8_struct, %struct.png_color_8_struct, ptr, %struct.png_color_16_struct, ptr, ptr, ptr, ptr, ptr, ptr, ptr, ptr, ptr, i32, i32, i64, i64, i64, i64, i32, i32, ptr, ptr, [29 x i8], i32, ptr, ptr, i32, i32, ptr, i8, i8, i16, i16, ptr, i32, i8, ptr, ptr, ptr, ptr, ptr, ptr, ptr, i8, i32, i32, i32, i64, %struct.png_unknown_chunk_t, i64, ptr, i64, i32, i32, ptr, [4 x ptr], %struct.png_colorspace }
%struct.__jmp_buf_tag = type { [8 x i64], i32, %struct.__sigset_t }
%struct.__sigset_t = type { [16 x i64] }
%struct.z_stream_s = type { ptr, i32, i64, ptr, i32, i64, ptr, ptr, ptr, ptr, ptr, i32, i64, i64 }
%struct.png_unknown_chunk_t = type { [5 x i8], ptr, i64, i8 }

@.str.43 = private unnamed_addr constant [31 x i8] c"invalid unknown chunk location\00", align 1
@.str.50 = private unnamed_addr constant [52 x i8] c"png_set_unknown_chunks now expects a valid location\00", align 1
@.str.51 = private unnamed_addr constant [43 x i8] c"invalid location in png_set_unknown_chunks\00", align 1

; Function Attrs: nounwind uwtable
define internal zeroext i8 @check_location(ptr noalias noundef %0, i32 noundef %1) #0 {
  %3 = alloca ptr, align 8
  %4 = alloca i32, align 4
  store ptr %0, ptr %3, align 8
  store i32 %1, ptr %4, align 4
  %5 = load i32, ptr %4, align 4
  %6 = and i32 %5, 11
  store i32 %6, ptr %4, align 4
  %7 = load i32, ptr %4, align 4
  %8 = icmp eq i32 %7, 0
  br i1 %8, label %9, label %23

9:                                                ; preds = %2
  %10 = load ptr, ptr %3, align 8
  %11 = getelementptr inbounds %struct.png_struct_def, ptr %10, i32 0, i32 14
  %12 = load i32, ptr %11, align 4
  %13 = and i32 %12, 32768
  %14 = icmp eq i32 %13, 0
  br i1 %14, label %15, label %23

15:                                               ; preds = %9
  %16 = load ptr, ptr %3, align 8
  call void @png_app_warning(ptr noundef %16, ptr noundef @.str.50)
  %17 = load ptr, ptr %3, align 8
  %18 = getelementptr inbounds %struct.png_struct_def, ptr %17, i32 0, i32 14
  %19 = load i32, ptr %18, align 4
  %20 = and i32 %19, 11
  %21 = trunc i32 %20 to i8
  %22 = zext i8 %21 to i32
  store i32 %22, ptr %4, align 4
  br label %23

23:                                               ; preds = %15, %9, %2
  %24 = load i32, ptr %4, align 4
  %25 = icmp eq i32 %24, 0
  br i1 %25, label %26, label %28

26:                                               ; preds = %23
  %27 = load ptr, ptr %3, align 8
  call void @png_error(ptr noundef %27, ptr noundef @.str.51) #7
  unreachable

28:                                               ; preds = %23
  br label %29

29:                                               ; preds = %36, %28
  %30 = load i32, ptr %4, align 4
  %31 = load i32, ptr %4, align 4
  %32 = load i32, ptr %4, align 4
  %33 = sub nsw i32 0, %32
  %34 = and i32 %31, %33
  %35 = icmp ne i32 %30, %34
  br i1 %35, label %36, label %44

36:                                               ; preds = %29
  %37 = load i32, ptr %4, align 4
  %38 = load i32, ptr %4, align 4
  %39 = sub nsw i32 0, %38
  %40 = and i32 %37, %39
  %41 = xor i32 %40, -1
  %42 = load i32, ptr %4, align 4
  %43 = and i32 %42, %41
  store i32 %43, ptr %4, align 4
  br label %29, !llvm.loop !13

44:                                               ; preds = %29
  %45 = load i32, ptr %4, align 4
  %46 = trunc i32 %45 to i8
  ret i8 %46
}

; Function Attrs: nounwind uwtable
define hidden void @png_set_unknown_chunk_location(ptr noalias noundef %0, ptr noalias noundef %1, i32 noundef %2, i32 noundef %3) #0 {
  %5 = alloca ptr, align 8
  %6 = alloca ptr, align 8
  %7 = alloca i32, align 4
  %8 = alloca i32, align 4
  store ptr %0, ptr %5, align 8
  store ptr %1, ptr %6, align 8
  store i32 %2, ptr %7, align 4
  store i32 %3, ptr %8, align 4
  %9 = load ptr, ptr %5, align 8
  %10 = icmp ne ptr %9, null
  br i1 %10, label %11, label %46

11:                                               ; preds = %4
  %12 = load ptr, ptr %6, align 8
  %13 = icmp ne ptr %12, null
  br i1 %13, label %14, label %46

14:                                               ; preds = %11
  %15 = load i32, ptr %7, align 4
  %16 = icmp sge i32 %15, 0
  br i1 %16, label %17, label %46

17:                                               ; preds = %14
  %18 = load i32, ptr %7, align 4
  %19 = load ptr, ptr %6, align 8
  %20 = getelementptr inbounds %struct.png_info_def, ptr %19, i32 0, i32 44
  %21 = load i32, ptr %20, align 8
  %22 = icmp slt i32 %18, %21
  br i1 %22, label %23, label %46

23:                                               ; preds = %17
  %24 = load i32, ptr %8, align 4
  %25 = and i32 %24, 11
  %26 = icmp eq i32 %25, 0
  br i1 %26, label %27, label %35

27:                                               ; preds = %23
  %28 = load ptr, ptr %5, align 8
  call void @png_app_error(ptr noundef %28, ptr noundef @.str.43)
  %29 = load i32, ptr %8, align 4
  %30 = and i32 %29, 4
  %31 = icmp ne i32 %30, 0
  br i1 %31, label %32, label %33

32:                                               ; preds = %27
  store i32 8, ptr %8, align 4
  br label %34

33:                                               ; preds = %27
  store i32 1, ptr %8, align 4
  br label %34

34:                                               ; preds = %33, %32
  br label %35

35:                                               ; preds = %34, %23
  %36 = load ptr, ptr %5, align 8
  %37 = load i32, ptr %8, align 4
  %38 = call zeroext i8 @check_location(ptr noundef %36, i32 noundef %37)
  %39 = load ptr, ptr %6, align 8
  %40 = getelementptr inbounds %struct.png_info_def, ptr %39, i32 0, i32 43
  %41 = load ptr, ptr %40, align 8
  %42 = load i32, ptr %7, align 4
  %43 = sext i32 %42 to i64
  %44 = getelementptr inbounds %struct.png_unknown_chunk_t, ptr %41, i64 %43
  %45 = getelementptr inbounds %struct.png_unknown_chunk_t, ptr %44, i32 0, i32 3
  store i8 %38, ptr %45, align 8
  br label %46

46:                                               ; preds = %35, %17, %14, %11, %4
  ret void
}