; Function Attrs: nounwind uwtable
define hidden void @png_set_unknown_chunk_location(ptr noalias noundef %0, ptr noalias noundef readonly %1, i32 noundef %2, i32 noundef %3) local_unnamed_addr #2 {
  %5 = icmp ne ptr %0, null
  %6 = icmp ne ptr %1, null
  %or.cond = and i1 %5, %6
  %7 = icmp sgt i32 %2, -1
  %or.cond3 = and i1 %or.cond, %7
  br i1 %or.cond3, label %8, label %37

8:                                                ; preds = %4
  %9 = getelementptr inbounds i8, ptr %1, i64 296
  %10 = load i32, ptr %9, align 8
  %11 = icmp sgt i32 %10, %2
  br i1 %11, label %12, label %37

12:                                               ; preds = %8
  %13 = and i32 %3, 11
  %14 = icmp eq i32 %13, 0
  br i1 %14, label %15, label %17

15:                                               ; preds = %12
  tail call void @png_app_error(ptr noundef nonnull %0, ptr noundef nonnull @.str.43) #12
  %16 = and i32 %3, 4
  %.not = icmp eq i32 %16, 0
  %. = select i1 %.not, i32 1, i32 8
  br label %17

17:                                               ; preds = %15, %12
  %.0 = phi i32 [ %3, %12 ], [ %., %15 ]
  %18 = and i32 %.0, 11
  %19 = icmp eq i32 %18, 0
  br i1 %19, label %20, label %.preheader.i.preheader

.preheader.i.preheader:                           ; preds = %25, %17
  %.1.i.ph = phi i32 [ %18, %17 ], [ %27, %25 ]
  br label %.preheader.i

20:                                               ; preds = %17
  %21 = getelementptr inbounds i8, ptr %0, i64 292
  %22 = load i32, ptr %21, align 4, !alias.scope !29
  %23 = and i32 %22, 32768
  %24 = icmp eq i32 %23, 0
  br i1 %24, label %25, label %.thread.i

25:                                               ; preds = %20
  tail call void @png_app_warning(ptr noundef nonnull %0, ptr noundef nonnull @.str.50) #12
  %26 = load i32, ptr %21, align 4, !alias.scope !29
  %27 = and i32 %26, 11
  %28 = icmp eq i32 %27, 0
  br i1 %28, label %.thread.i, label %.preheader.i.preheader

.thread.i:                                        ; preds = %25, %20
  tail call void @png_error(ptr noundef nonnull %0, ptr noundef nonnull @.str.51) #14
  unreachable

.preheader.i:                                     ; preds = %.preheader.i.preheader, %.preheader.i
  %.1.i = phi i32 [ %31, %.preheader.i ], [ %.1.i.ph, %.preheader.i.preheader ]
  %29 = sub nsw i32 0, %.1.i
  %30 = and i32 %.1.i, %29
  %.not.i = icmp eq i32 %.1.i, %30
  %31 = xor i32 %30, %.1.i
  br i1 %.not.i, label %check_location.exit, label %.preheader.i, !llvm.loop !27

check_location.exit:                              ; preds = %.preheader.i
  %32 = trunc nuw nsw i32 %.1.i to i8
  %33 = getelementptr inbounds i8, ptr %1, i64 288
  %34 = load ptr, ptr %33, align 8
  %35 = zext nneg i32 %2 to i64
  %36 = getelementptr inbounds %struct.png_unknown_chunk_t, ptr %34, i64 %35, i32 3
  store i8 %32, ptr %36, align 8
  br label %37

37:                                               ; preds = %check_location.exit, %8, %4
  ret void
}